; Function Attrs: mustprogress uwtable
define void @_ZN5boost9unit_test6output22compiler_log_formatter12print_prefixERSoNS0_13basic_cstringIKcEEm(ptr nocapture nonnull readnone align 8 %0, ptr noundef nonnull align 8 dereferenceable(8) %1, ptr noundef %2, i64 noundef %3) unnamed_addr #3 align 2 {
  %5 = alloca i8, align 1
  %6 = getelementptr inbounds nuw i8, ptr %2, i64 8
  %7 = load ptr, ptr %6, align 8, !tbaa !13
  %8 = load ptr, ptr %2, align 8, !tbaa !11
  %9 = icmp eq ptr %7, %8
  br i1 %9, label %24, label %10

10:                                               ; preds = %4
  %11 = tail call noundef nonnull align 8 dereferenceable(8) ptr @_ZN5boost9unit_testlsIcSt11char_traitsIcEKcEERSt13basic_ostreamIT_T0_ES9_RKNS0_13basic_cstringIT1_EE(ptr noundef nonnull align 8 dereferenceable(8) %1, ptr noundef nonnull align 8 dereferenceable(16) %2)
  call void @llvm.lifetime.start.p0(i64 1, ptr nonnull %5)
  store i8 40, ptr %5, align 1, !tbaa !23
  %12 = load ptr, ptr %11, align 8, !tbaa !24
  %13 = getelementptr i8, ptr %12, i64 -24
  %14 = load i64, ptr %13, align 8
  %15 = getelementptr inbounds i8, ptr %11, i64 %14
  %16 = getelementptr inbounds nuw i8, ptr %15, i64 16
  %17 = load i64, ptr %16, align 8, !tbaa !26
  %.not.i = icmp eq i64 %17, 0
  br i1 %.not.i, label %20, label %18

18:                                               ; preds = %10
  %19 = call noundef nonnull align 8 dereferenceable(8) ptr @_ZSt16__ostream_insertIcSt11char_traitsIcEERSt13basic_ostreamIT_T0_ES6_PKS3_l(ptr noundef nonnull align 8 dereferenceable(8) %11, ptr noundef nonnull %5, i64 noundef 1)
  br label %_ZStlsISt11char_traitsIcEERSt13basic_ostreamIcT_ES5_c.exit

20:                                               ; preds = %10
  %21 = tail call noundef nonnull align 8 dereferenceable(8) ptr @_ZNSo3putEc(ptr noundef nonnull align 8 dereferenceable(8) %11, i8 noundef signext 40)
  br label %_ZStlsISt11char_traitsIcEERSt13basic_ostreamIcT_ES5_c.exit

_ZStlsISt11char_traitsIcEERSt13basic_ostreamIcT_ES5_c.exit: ; preds = %18, %20
  %.0.i = phi ptr [ %19, %18 ], [ %11, %20 ]
  call void @llvm.lifetime.end.p0(i64 1, ptr nonnull %5)
  %22 = call noundef nonnull align 8 dereferenceable(8) ptr @_ZNSo9_M_insertImEERSoT_(ptr noundef nonnull align 8 dereferenceable(8) %.0.i, i64 noundef %3)
  %23 = call noundef nonnull align 8 dereferenceable(8) ptr @_ZSt16__ostream_insertIcSt11char_traitsIcEERSt13basic_ostreamIT_T0_ES6_PKS3_l(ptr noundef nonnull align 8 dereferenceable(8) %22, ptr noundef nonnull @.str.29, i64 noundef 3)
  br label %24

24:                                               ; preds = %_ZStlsISt11char_traitsIcEERSt13basic_ostreamIcT_ES5_c.exit, %4
  ret void
}